target datalayout = "e-m:e-p270:32:32-p271:32:32-p272:64:64-i64:64-i128:128-f80:128-n8:16:32:64-S128"
target triple = "x86_64-pc-linux-gnu"

@.str = private unnamed_addr constant [30 x i8] c"Assertion %s failed at %s:%d\0A\00", align 1
@.str.1 = private unnamed_addr constant [15 x i8] c"(start&1) == 0\00", align 1
@.str.2 = private unnamed_addr constant [22 x i8] c"libavformat/riffenc.c\00", align 1

; Function Attrs: alwaysinline nounwind uwtable
define internal i64 @avio_tell(ptr noundef %0) #1 {
  %2 = alloca ptr, align 8
  store ptr %0, ptr %2, align 8, !tbaa !4
  %3 = load ptr, ptr %2, align 8, !tbaa !4
  %4 = call i64 @avio_seek(ptr noundef %3, i64 noundef 0, i32 noundef 1)
  ret i64 %4
}

; Function Attrs: nounwind uwtable
define void @ff_end_tag(ptr noundef %0, i64 noundef %1) #0 {
  %3 = alloca ptr, align 8
  %4 = alloca i64, align 8
  %5 = alloca i64, align 8
  store ptr %0, ptr %3, align 8, !tbaa !4
  store i64 %1, ptr %4, align 8, !tbaa !12
  call void @llvm.lifetime.start.p0(i64 8, ptr %5) #7
  br label %6

6:                                                ; preds = %2
  %7 = load i64, ptr %4, align 8, !tbaa !12
  %8 = and i64 %7, 1
  %9 = icmp eq i64 %8, 0
  br i1 %9, label %11, label %10

10:                                               ; preds = %6
  call void (ptr, i32, ptr, ...) @av_log(ptr noundef null, i32 noundef 0, ptr noundef @.str, ptr noundef @.str.1, ptr noundef @.str.2, i32 noundef 42)
  call void @abort() #8
  unreachable

11:                                               ; preds = %6
  br label %12

12:                                               ; preds = %11
  br label %13

13:                                               ; preds = %12
  %14 = load ptr, ptr %3, align 8, !tbaa !4
  %15 = call i64 @avio_tell(ptr noundef %14)
  store i64 %15, ptr %5, align 8, !tbaa !12
  %16 = load i64, ptr %5, align 8, !tbaa !12
  %17 = and i64 %16, 1
  %18 = icmp ne i64 %17, 0
  br i1 %18, label %19, label %21

19:                                               ; preds = %13
  %20 = load ptr, ptr %3, align 8, !tbaa !4
  call void @avio_w8(ptr noundef %20, i32 noundef 0)
  br label %21

21:                                               ; preds = %19, %13
  %22 = load ptr, ptr %3, align 8, !tbaa !4
  %23 = load i64, ptr %4, align 8, !tbaa !12
  %24 = sub nsw i64 %23, 4
  %25 = call i64 @avio_seek(ptr noundef %22, i64 noundef %24, i32 noundef 0)
  %26 = load ptr, ptr %3, align 8, !tbaa !4
  %27 = load i64, ptr %5, align 8, !tbaa !12
  %28 = load i64, ptr %4, align 8, !tbaa !12
  %29 = sub nsw i64 %27, %28
  %30 = trunc i64 %29 to i32
  call void @avio_wl32(ptr noundef %26, i32 noundef %30)
  %31 = load ptr, ptr %3, align 8, !tbaa !4
  %32 = load i64, ptr %5, align 8, !tbaa !12
  %33 = add nsw i64 %32, 2
  %34 = sub nsw i64 %33, 1
  %35 = and i64 %34, -2
  %36 = call i64 @avio_seek(ptr noundef %31, i64 noundef %35, i32 noundef 0)
  call void @llvm.lifetime.end.p0(i64 8, ptr %5) #7
  ret void
}