; Function Attrs: nounwind uwtable
define void @ff_end_tag(ptr noundef %0, i64 noundef %1) local_unnamed_addr #0 {
  %3 = and i64 %1, 1
  %4 = icmp eq i64 %3, 0
  br i1 %4, label %6, label %5

5:                                                ; preds = %2
  tail call void (ptr, i32, ptr, ...) @av_log(ptr noundef null, i32 noundef 0, ptr noundef nonnull @.str, ptr noundef nonnull @.str.1, ptr noundef nonnull @.str.2, i32 noundef 42) #8
  tail call void @abort() #9
  unreachable

6:                                                ; preds = %2
  %7 = tail call i64 @avio_seek(ptr noundef %0, i64 noundef 0, i32 noundef 1) #8
  %8 = and i64 %7, 1
  %.not = icmp eq i64 %8, 0
  br i1 %.not, label %10, label %9

9:                                                ; preds = %6
  tail call void @avio_w8(ptr noundef %0, i32 noundef 0) #8
  br label %10

10:                                               ; preds = %9, %6
  %11 = add nsw i64 %1, -4
  %12 = tail call i64 @avio_seek(ptr noundef %0, i64 noundef %11, i32 noundef 0) #8
  %13 = sub nsw i64 %7, %1
  %14 = trunc i64 %13 to i32
  tail call void @avio_wl32(ptr noundef %0, i32 noundef %14) #8
  %15 = add nsw i64 %7, 1
  %16 = and i64 %15, -2
  %17 = tail call i64 @avio_seek(ptr noundef %0, i64 noundef %16, i32 noundef 0) #8
  ret void
}